target datalayout = "e-m:e-p270:32:32-p271:32:32-p272:64:64-i64:64-i128:128-f80:128-n8:16:32:64-S128"
target triple = "x86_64-pc-linux-gnu"

@socket_fd = internal global i32 0, align 4
@path_to_unlink = internal global ptr null, align 8
@blocks = internal global ptr null, align 8
@log = internal global ptr null, align 8
@divergence_log = internal global ptr null, align 8

; Function Attrs: nounwind sspstrong uwtable
define internal void @plugin_cleanup(i64 noundef %0) #0 {
  %2 = alloca i64, align 8
  store i64 %0, ptr %2, align 8
  %3 = load ptr, ptr @blocks, align 8
  call void @g_slist_free_full(ptr noundef %3, ptr noundef @g_free)
  %4 = load ptr, ptr @log, align 8
  call void @g_slist_free_full(ptr noundef %4, ptr noundef @g_free)
  %5 = load ptr, ptr @divergence_log, align 8
  call void @g_slist_free(ptr noundef %5)
  %6 = load i32, ptr @socket_fd, align 4
  %7 = call i32 @close(i32 noundef %6)
  %8 = load ptr, ptr @path_to_unlink, align 8
  %9 = icmp ne ptr %8, null
  br i1 %9, label %10, label %13

10:                                               ; preds = %1
  %11 = load ptr, ptr @path_to_unlink, align 8
  %12 = call i32 @unlink(ptr noundef %11) #11
  br label %13

13:                                               ; preds = %10, %1
  ret void
}