; Function Attrs: nounwind sspstrong uwtable
define internal void @plugin_cleanup(i64 %0) #0 {
  %2 = load ptr, ptr @blocks, align 8
  tail call void @g_slist_free_full(ptr noundef %2, ptr noundef nonnull @g_free) #11
  %3 = load ptr, ptr @log, align 8
  tail call void @g_slist_free_full(ptr noundef %3, ptr noundef nonnull @g_free) #11
  %4 = load ptr, ptr @divergence_log, align 8
  tail call void @g_slist_free(ptr noundef %4) #11
  %5 = load i32, ptr @socket_fd, align 4
  %6 = tail call i32 @close(i32 noundef %5) #11
  %7 = load ptr, ptr @path_to_unlink, align 8
  %.not = icmp eq ptr %7, null
  br i1 %.not, label %10, label %8

8:                                                ; preds = %1
  %9 = tail call i32 @unlink(ptr noundef nonnull %7) #11
  br label %10

10:                                               ; preds = %8, %1
  ret void
}